; Function Attrs: nofree norecurse nosync nounwind memory(readwrite, inaccessiblemem: none) uwtable
define void @reset(ptr noundef captures(none) initializes((0, 8)) %0) local_unnamed_addr #0 {
  %2 = getelementptr inbounds nuw i8, ptr %0, i64 8
  %3 = load i32, ptr %2, align 8, !tbaa !11
  store i32 %3, ptr %0, align 8, !tbaa !3
  %4 = getelementptr inbounds nuw i8, ptr %0, i64 12
  %5 = load i32, ptr %4, align 4, !tbaa !13
  %6 = getelementptr inbounds nuw i8, ptr %0, i64 4
  store i32 %5, ptr %6, align 4, !tbaa !12
  %7 = icmp sgt i32 %3, 0
  br i1 %7, label %.lr.ph, label %.preheader

.lr.ph:                                           ; preds = %1
  %8 = getelementptr inbounds nuw i8, ptr %0, i64 16
  %9 = load ptr, ptr %8, align 8, !tbaa !14
  %wide.trip.count = zext nneg i32 %3 to i64
  br label %14

.preheader:                                       ; preds = %1
  %10 = icmp sgt i32 %3, -2
  br i1 %10, label %.lr.ph17, label %._crit_edge

.lr.ph17:                                         ; preds = %.preheader.thread, %.preheader
  %.0.lcssa25 = phi i64 [ %19, %.preheader.thread ], [ 0, %.preheader ]
  %11 = add nsw i32 %3, 2
  %12 = getelementptr inbounds nuw i8, ptr %0, i64 16
  %13 = load ptr, ptr %12, align 8, !tbaa !14
  %wide.trip.count22 = zext i32 %11 to i64
  br label %20

14:                                               ; preds = %.lr.ph, %14
  %indvars.iv = phi i64 [ 0, %.lr.ph ], [ %indvars.iv.next, %14 ]
  %15 = getelementptr inbounds nuw %struct.snode, ptr %9, i64 %indvars.iv
  %16 = getelementptr inbounds nuw i8, ptr %15, i64 26
  %17 = load i16, ptr %16, align 2, !tbaa !20
  %18 = getelementptr inbounds nuw i8, ptr %15, i64 24
  store i16 %17, ptr %18, align 8, !tbaa !15
  %indvars.iv.next = add nuw nsw i64 %indvars.iv, 1
  %exitcond.not = icmp eq i64 %indvars.iv.next, %wide.trip.count
  br i1 %exitcond.not, label %.preheader.thread, label %14, !llvm.loop !23

.preheader.thread:                                ; preds = %14
  %19 = zext nneg i32 %3 to i64
  br label %.lr.ph17

20:                                               ; preds = %.lr.ph17, %20
  %indvars.iv19 = phi i64 [ %.0.lcssa25, %.lr.ph17 ], [ %indvars.iv.next20, %20 ]
  %21 = getelementptr inbounds nuw %struct.snode, ptr %13, i64 %indvars.iv19, i32 4
  store i16 0, ptr %21, align 8, !tbaa !15
  %indvars.iv.next20 = add nuw nsw i64 %indvars.iv19, 1
  %exitcond23.not = icmp eq i64 %indvars.iv.next20, %wide.trip.count22
  br i1 %exitcond23.not, label %._crit_edge, label %20, !llvm.loop !24

._crit_edge:                                      ; preds = %20, %.preheader
  ret void
}